target datalayout = "e-m:e-p270:32:32-p271:32:32-p272:64:64-i64:64-i128:128-f80:128-n8:16:32:64-S128"
target triple = "x86_64-pc-linux-gnu"

%struct._typeobject = type { %struct.PyVarObject, ptr, i64, i64, ptr, i64, ptr, ptr, ptr, ptr, ptr, ptr, ptr, ptr, ptr, ptr, ptr, ptr, ptr, i64, ptr, ptr, ptr, ptr, i64, ptr, ptr, ptr, ptr, ptr, ptr, ptr, ptr, ptr, i64, ptr, ptr, ptr, ptr, ptr, ptr, ptr, ptr, ptr, ptr, ptr, i32, ptr, ptr, i8, i16 }
%struct.PyVarObject = type { %struct._object, i64 }
%struct._object = type { %union.anon, ptr }
%union.anon = type { i64 }

; Function Attrs: nounwind uwtable
define hidden i32 @_PyTestCapi_Init_Vectorcall(ptr noundef %0) #0 {
  %2 = alloca i32, align 4
  %3 = alloca ptr, align 8
  store ptr %0, ptr %3, align 8, !tbaa !3
  %4 = load ptr, ptr %3, align 8, !tbaa !3
  %5 = call i32 @PyModule_AddFunctions(ptr noundef %4, ptr noundef @TestMethods)
  %6 = icmp slt i32 %5, 0
  br i1 %6, label %7, label %8

7:                                                ; preds = %1
  store i32 -1, ptr %2, align 4
  br label %45

8:                                                ; preds = %1
  %9 = call i32 @PyType_Ready(ptr noundef @MethodDescriptorBase_Type)
  %10 = icmp slt i32 %9, 0
  br i1 %10, label %11, label %12

11:                                               ; preds = %8
  store i32 -1, ptr %2, align 4
  br label %45

12:                                               ; preds = %8
  %13 = load ptr, ptr %3, align 8, !tbaa !3
  %14 = call i32 @PyModule_AddType(ptr noundef %13, ptr noundef @MethodDescriptorBase_Type)
  %15 = icmp slt i32 %14, 0
  br i1 %15, label %16, label %17

16:                                               ; preds = %12
  store i32 -1, ptr %2, align 4
  br label %45

17:                                               ; preds = %12
  store ptr @MethodDescriptorBase_Type, ptr getelementptr inbounds nuw (%struct._typeobject, ptr @MethodDescriptorDerived_Type, i32 0, i32 30), align 8, !tbaa !24
  %18 = call i32 @PyType_Ready(ptr noundef @MethodDescriptorDerived_Type)
  %19 = icmp slt i32 %18, 0
  br i1 %19, label %20, label %21

20:                                               ; preds = %17
  store i32 -1, ptr %2, align 4
  br label %45

21:                                               ; preds = %17
  %22 = load ptr, ptr %3, align 8, !tbaa !3
  %23 = call i32 @PyModule_AddType(ptr noundef %22, ptr noundef @MethodDescriptorDerived_Type)
  %24 = icmp slt i32 %23, 0
  br i1 %24, label %25, label %26

25:                                               ; preds = %21
  store i32 -1, ptr %2, align 4
  br label %45

26:                                               ; preds = %21
  store ptr @MethodDescriptorBase_Type, ptr getelementptr inbounds nuw (%struct._typeobject, ptr @MethodDescriptorNopGet_Type, i32 0, i32 30), align 8, !tbaa !24
  %27 = call i32 @PyType_Ready(ptr noundef @MethodDescriptorNopGet_Type)
  %28 = icmp slt i32 %27, 0
  br i1 %28, label %29, label %30

29:                                               ; preds = %26
  store i32 -1, ptr %2, align 4
  br label %45

30:                                               ; preds = %26
  %31 = load ptr, ptr %3, align 8, !tbaa !3
  %32 = call i32 @PyModule_AddType(ptr noundef %31, ptr noundef @MethodDescriptorNopGet_Type)
  %33 = icmp slt i32 %32, 0
  br i1 %33, label %34, label %35

34:                                               ; preds = %30
  store i32 -1, ptr %2, align 4
  br label %45

35:                                               ; preds = %30
  store ptr @MethodDescriptorBase_Type, ptr getelementptr inbounds nuw (%struct._typeobject, ptr @MethodDescriptor2_Type, i32 0, i32 30), align 8, !tbaa !24
  %36 = call i32 @PyType_Ready(ptr noundef @MethodDescriptor2_Type)
  %37 = icmp slt i32 %36, 0
  br i1 %37, label %38, label %39

38:                                               ; preds = %35
  store i32 -1, ptr %2, align 4
  br label %45

39:                                               ; preds = %35
  %40 = load ptr, ptr %3, align 8, !tbaa !3
  %41 = call i32 @PyModule_AddType(ptr noundef %40, ptr noundef @MethodDescriptor2_Type)
  %42 = icmp slt i32 %41, 0
  br i1 %42, label %43, label %44

43:                                               ; preds = %39
  store i32 -1, ptr %2, align 4
  br label %45

44:                                               ; preds = %39
  store i32 0, ptr %2, align 4
  br label %45

45:                                               ; preds = %44, %43, %38, %34, %29, %25, %20, %16, %11, %7
  %46 = load i32, ptr %2, align 4
  ret i32 %46
}