; Function Attrs: nounwind uwtable
define hidden range(i32 -1, 1) i32 @_PyTestCapi_Init_Vectorcall(ptr noundef %0) local_unnamed_addr #0 {
  %2 = tail call i32 @PyModule_AddFunctions(ptr noundef %0, ptr noundef nonnull @TestMethods) #5
  %3 = icmp slt i32 %2, 0
  br i1 %3, label %27, label %4

4:                                                ; preds = %1
  %5 = tail call i32 @PyType_Ready(ptr noundef nonnull @MethodDescriptorBase_Type) #5
  %6 = icmp slt i32 %5, 0
  br i1 %6, label %27, label %7

7:                                                ; preds = %4
  %8 = tail call i32 @PyModule_AddType(ptr noundef %0, ptr noundef nonnull @MethodDescriptorBase_Type) #5
  %9 = icmp slt i32 %8, 0
  br i1 %9, label %27, label %10

10:                                               ; preds = %7
  store ptr @MethodDescriptorBase_Type, ptr getelementptr inbounds nuw (i8, ptr @MethodDescriptorDerived_Type, i64 256), align 8, !tbaa !23
  %11 = tail call i32 @PyType_Ready(ptr noundef nonnull @MethodDescriptorDerived_Type) #5
  %12 = icmp slt i32 %11, 0
  br i1 %12, label %27, label %13

13:                                               ; preds = %10
  %14 = tail call i32 @PyModule_AddType(ptr noundef %0, ptr noundef nonnull @MethodDescriptorDerived_Type) #5
  %15 = icmp slt i32 %14, 0
  br i1 %15, label %27, label %16

16:                                               ; preds = %13
  store ptr @MethodDescriptorBase_Type, ptr getelementptr inbounds nuw (i8, ptr @MethodDescriptorNopGet_Type, i64 256), align 8, !tbaa !23
  %17 = tail call i32 @PyType_Ready(ptr noundef nonnull @MethodDescriptorNopGet_Type) #5
  %18 = icmp slt i32 %17, 0
  br i1 %18, label %27, label %19

19:                                               ; preds = %16
  %20 = tail call i32 @PyModule_AddType(ptr noundef %0, ptr noundef nonnull @MethodDescriptorNopGet_Type) #5
  %21 = icmp slt i32 %20, 0
  br i1 %21, label %27, label %22

22:                                               ; preds = %19
  store ptr @MethodDescriptorBase_Type, ptr getelementptr inbounds nuw (i8, ptr @MethodDescriptor2_Type, i64 256), align 8, !tbaa !23
  %23 = tail call i32 @PyType_Ready(ptr noundef nonnull @MethodDescriptor2_Type) #5
  %24 = icmp slt i32 %23, 0
  br i1 %24, label %27, label %25

25:                                               ; preds = %22
  %26 = tail call i32 @PyModule_AddType(ptr noundef %0, ptr noundef nonnull @MethodDescriptor2_Type) #5
  %.lobit = ashr i32 %26, 31
  br label %27

27:                                               ; preds = %25, %22, %19, %16, %13, %10, %7, %4, %1
  %.0 = phi i32 [ -1, %1 ], [ -1, %4 ], [ -1, %7 ], [ -1, %10 ], [ -1, %13 ], [ -1, %16 ], [ -1, %19 ], [ -1, %22 ], [ %.lobit, %25 ]
  ret i32 %.0
}